target datalayout = "e-m:e-p270:32:32-p271:32:32-p272:64:64-i64:64-i128:128-f80:128-n8:16:32:64-S128"
target triple = "x86_64-pc-linux-gnu"

; Function Attrs: nounwind uwtable
define internal i32 @attempt_mux_level2_3_header_parse(i32 noundef %0, i32 noundef %1, ptr noundef %2) #0 {
  %4 = alloca i32, align 4
  %5 = alloca i32, align 4
  %6 = alloca i32, align 4
  %7 = alloca ptr, align 8
  %8 = alloca i32, align 4
  store i32 %0, ptr %5, align 4
  store i32 %1, ptr %6, align 4
  store ptr %2, ptr %7, align 8
  %9 = load i32, ptr %5, align 4
  %10 = icmp ult i32 %9, 3
  br i1 %10, label %11, label %12

11:                                               ; preds = %3
  store i32 0, ptr %4, align 4
  br label %39

12:                                               ; preds = %3
  %13 = load ptr, ptr %7, align 8
  store i32 5, ptr %13, align 4
  %14 = load i32, ptr %6, align 4
  %15 = and i32 %14, 16711680
  %16 = lshr i32 %15, 16
  %17 = load i32, ptr %6, align 4
  %18 = and i32 %17, 65280
  %19 = or i32 %16, %18
  %20 = load i32, ptr %6, align 4
  %21 = and i32 %20, 255
  %22 = shl i32 %21, 16
  %23 = or i32 %19, %22
  store i32 %23, ptr %6, align 4
  %24 = load i32, ptr %6, align 4
  %25 = call i32 @golay_errors(i32 noundef %24)
  store i32 %25, ptr %8, align 4
  %26 = load i32, ptr %8, align 4
  %27 = icmp ne i32 %26, -1
  br i1 %27, label %28, label %38

28:                                               ; preds = %12
  %29 = load i32, ptr %8, align 4
  %30 = load i32, ptr %6, align 4
  %31 = xor i32 %30, %29
  store i32 %31, ptr %6, align 4
  %32 = load i32, ptr %6, align 4
  %33 = lshr i32 %32, 4
  %34 = and i32 %33, 255
  %35 = load ptr, ptr %7, align 8
  %36 = load i32, ptr %35, align 4
  %37 = add i32 %36, %34
  store i32 %37, ptr %35, align 4
  br label %38

38:                                               ; preds = %28, %12
  store i32 1, ptr %4, align 4
  br label %39

39:                                               ; preds = %38, %11
  %40 = load i32, ptr %4, align 4
  ret i32 %40
}