; Function Attrs: nounwind uwtable
define internal range(i32 0, 2) i32 @attempt_mux_level2_3_header_parse(i32 noundef %0, i32 noundef %1, ptr noundef captures(none) %2) #0 {
  %4 = icmp ult i32 %0, 3
  br i1 %4, label %20, label %5

5:                                                ; preds = %3
  store i32 5, ptr %2, align 4
  %6 = lshr i32 %1, 16
  %7 = and i32 %6, 255
  %8 = and i32 %1, 65280
  %9 = or disjoint i32 %7, %8
  %10 = shl i32 %1, 16
  %11 = and i32 %10, 16711680
  %12 = or disjoint i32 %9, %11
  %13 = tail call i32 @golay_errors(i32 noundef %12) #12
  %.not = icmp eq i32 %13, -1
  br i1 %.not, label %20, label %14

14:                                               ; preds = %5
  %15 = xor i32 %13, %9
  %16 = lshr i32 %15, 4
  %17 = and i32 %16, 255
  %18 = load i32, ptr %2, align 4
  %19 = add i32 %18, %17
  store i32 %19, ptr %2, align 4
  br label %20

20:                                               ; preds = %5, %14, %3
  %.0 = phi i32 [ 0, %3 ], [ 1, %14 ], [ 1, %5 ]
  ret i32 %.0
}